; Function Attrs: nounwind sspstrong uwtable
define internal noundef i64 @each_val_i(i64 %0, i64 %1, i32 noundef %2, ptr noundef %3, i64 %4) #0 {
  switch i32 %2, label %rb_enum_values_pack.exit [
    i32 0, label %.thread
    i32 1, label %11
  ]

rb_enum_values_pack.exit:                         ; preds = %5
  %6 = sext i32 %2 to i64
  %7 = tail call i64 @rb_ary_new_from_values(i64 noundef %6, ptr noundef %3) #14
  %8 = icmp sgt i32 %2, 1
  br i1 %8, label %9, label %.thread

9:                                                ; preds = %rb_enum_values_pack.exit
  %10 = tail call i64 @rb_yield_force_blockarg(i64 noundef %7) #14
  br label %enum_yield.exit

11:                                               ; preds = %5
  %12 = load i64, ptr %3, align 8, !tbaa !7
  %13 = tail call i64 @rb_yield(i64 noundef %12) #14
  br label %enum_yield.exit

.thread:                                          ; preds = %rb_enum_values_pack.exit, %5
  %14 = tail call i64 @rb_yield_values2(i32 noundef 0, ptr noundef null) #14
  br label %enum_yield.exit

enum_yield.exit:                                  ; preds = %9, %11, %.thread
  ret i64 4
}